target datalayout = "e-m:e-p270:32:32-p271:32:32-p272:64:64-i64:64-i128:128-f80:128-n8:16:32:64-S128"
target triple = "x86_64-pc-linux-gnu"

%class.fixed_bit_vector = type { [1 x i32] }
%class.fixed_bit_vector_manager = type <{ %class.small_object_allocator, i32, i32, i32, i32, %class.fixed_bit_vector, [4 x i8] }>
%class.small_object_allocator = type { [32 x ptr], [32 x ptr], i64 }

; Function Attrs: mustprogress nounwind uwtable
define linkonce_odr hidden noundef i32 @_ZNK24fixed_bit_vector_manager9num_wordsEv(ptr noundef nonnull align 8 dereferenceable(540) %0) #6 comdat align 2 {
  %2 = alloca ptr, align 8
  store ptr %0, ptr %2, align 8, !tbaa !18
  %3 = load ptr, ptr %2, align 8
  %4 = getelementptr inbounds nuw %class.fixed_bit_vector_manager, ptr %3, i32 0, i32 3
  %5 = load i32, ptr %4, align 8, !tbaa !25
  ret i32 %5
}

; Function Attrs: mustprogress uwtable
define hidden noundef i32 @_ZNK24fixed_bit_vector_manager9last_wordERK16fixed_bit_vector(ptr noundef nonnull align 8 dereferenceable(540) %0, ptr noundef nonnull align 4 dereferenceable(4) %1) #4 align 2 {
  %3 = alloca i32, align 4
  %4 = alloca ptr, align 8
  %5 = alloca ptr, align 8
  %6 = alloca i32, align 4
  %7 = alloca i32, align 4
  store ptr %0, ptr %4, align 8, !tbaa !18
  store ptr %1, ptr %5, align 8, !tbaa !3
  %8 = load ptr, ptr %4, align 8
  call void @llvm.lifetime.start.p0(i64 4, ptr %6) #3
  %9 = call noundef i32 @_ZNK24fixed_bit_vector_manager9num_wordsEv(ptr noundef nonnull align 8 dereferenceable(540) %8)
  store i32 %9, ptr %6, align 4, !tbaa !8
  %10 = load i32, ptr %6, align 4, !tbaa !8
  %11 = icmp eq i32 %10, 0
  br i1 %11, label %12, label %13

12:                                               ; preds = %2
  store i32 0, ptr %3, align 4
  store i32 1, ptr %7, align 4
  br label %24

13:                                               ; preds = %2
  %14 = load ptr, ptr %5, align 8, !tbaa !3
  %15 = getelementptr inbounds nuw %class.fixed_bit_vector, ptr %14, i32 0, i32 0
  %16 = load i32, ptr %6, align 4, !tbaa !8
  %17 = sub i32 %16, 1
  %18 = zext i32 %17 to i64
  %19 = getelementptr inbounds nuw [1 x i32], ptr %15, i64 0, i64 %18
  %20 = load i32, ptr %19, align 4, !tbaa !8
  %21 = getelementptr inbounds nuw %class.fixed_bit_vector_manager, ptr %8, i32 0, i32 4
  %22 = load i32, ptr %21, align 4, !tbaa !27
  %23 = and i32 %20, %22
  store i32 %23, ptr %3, align 4
  store i32 1, ptr %7, align 4
  br label %24

24:                                               ; preds = %13, %12
  call void @llvm.lifetime.end.p0(i64 4, ptr %6) #3
  %25 = load i32, ptr %3, align 4
  ret i32 %25
}