; Function Attrs: mustprogress nofree norecurse nosync nounwind willreturn memory(argmem: read) uwtable
define hidden noundef i32 @_ZNK24fixed_bit_vector_manager9last_wordERK16fixed_bit_vector(ptr noundef nonnull readonly align 8 captures(none) dereferenceable(540) %0, ptr noundef nonnull readonly align 4 captures(none) dereferenceable(4) %1) local_unnamed_addr #8 align 2 {
  %3 = getelementptr inbounds nuw i8, ptr %0, i64 528
  %4 = load i32, ptr %3, align 8, !tbaa !16
  %5 = icmp eq i32 %4, 0
  br i1 %5, label %14, label %6

6:                                                ; preds = %2
  %7 = add i32 %4, -1
  %8 = zext i32 %7 to i64
  %9 = getelementptr inbounds nuw [1 x i32], ptr %1, i64 0, i64 %8
  %10 = load i32, ptr %9, align 4, !tbaa !3
  %11 = getelementptr inbounds nuw i8, ptr %0, i64 532
  %12 = load i32, ptr %11, align 4, !tbaa !18
  %13 = and i32 %12, %10
  br label %14

14:                                               ; preds = %2, %6
  %.0 = phi i32 [ %13, %6 ], [ 0, %2 ]
  ret i32 %.0
}